; Function Attrs: mustprogress nofree norecurse nosync nounwind memory(argmem: readwrite) uwtable
define hidden void @_ZN2cv13accSqr_16u64fEPKtPdPKhii(ptr noundef readonly captures(none) %0, ptr noundef captures(none) %1, ptr noundef readonly %2, i32 noundef %3, i32 noundef %4) local_unnamed_addr #0 {
  %.not.i.i = icmp eq ptr %2, null
  br i1 %.not.i.i, label %6, label %15

6:                                                ; preds = %5
  %7 = mul nsw i32 %4, %3
  %8 = icmp sgt i32 %7, 0
  br i1 %8, label %.lr.ph.preheader.i.i, label %_ZN2cv12cpu_baseline12accSqr_simd_EPKtPdPKhii.exit

.lr.ph.preheader.i.i:                             ; preds = %6
  %wide.trip.count60.i.i = zext nneg i32 %7 to i64
  br label %.lr.ph.i.i

.lr.ph.i.i:                                       ; preds = %.lr.ph.i.i, %.lr.ph.preheader.i.i
  %indvars.iv57.i.i = phi i64 [ 0, %.lr.ph.preheader.i.i ], [ %indvars.iv.next58.i.i, %.lr.ph.i.i ]
  %9 = getelementptr inbounds nuw i16, ptr %0, i64 %indvars.iv57.i.i
  %10 = load i16, ptr %9, align 2, !tbaa !12
  %11 = uitofp i16 %10 to double
  %12 = getelementptr inbounds nuw double, ptr %1, i64 %indvars.iv57.i.i
  %13 = load double, ptr %12, align 8, !tbaa !20
  %14 = tail call double @llvm.fmuladd.f64(double %11, double %11, double %13)
  store double %14, ptr %12, align 8, !tbaa !20
  %indvars.iv.next58.i.i = add nuw nsw i64 %indvars.iv57.i.i, 1
  %exitcond61.not.i.i = icmp eq i64 %indvars.iv.next58.i.i, %wide.trip.count60.i.i
  br i1 %exitcond61.not.i.i, label %_ZN2cv12cpu_baseline12accSqr_simd_EPKtPdPKhii.exit, label %.lr.ph.i.i, !llvm.loop !46

15:                                               ; preds = %5
  %16 = icmp sgt i32 %3, 0
  br i1 %16, label %.lr.ph47.i.i, label %_ZN2cv12cpu_baseline12accSqr_simd_EPKtPdPKhii.exit

.lr.ph47.i.i:                                     ; preds = %15
  %17 = icmp sgt i32 %4, 0
  %18 = sext i32 %4 to i64
  br i1 %17, label %.lr.ph47.split.us.preheader.i.i, label %_ZN2cv12cpu_baseline12accSqr_simd_EPKtPdPKhii.exit

.lr.ph47.split.us.preheader.i.i:                  ; preds = %.lr.ph47.i.i
  %wide.trip.count55.i.i = zext nneg i32 %3 to i64
  %wide.trip.count.i.i = zext nneg i32 %4 to i64
  br label %.lr.ph47.split.us.i.i

.lr.ph47.split.us.i.i:                            ; preds = %..loopexit41_crit_edge.us.i.i, %.lr.ph47.split.us.preheader.i.i
  %indvars.iv52.i.i = phi i64 [ 0, %.lr.ph47.split.us.preheader.i.i ], [ %indvars.iv.next53.i.i, %..loopexit41_crit_edge.us.i.i ]
  %.03745.us.i.i = phi ptr [ %0, %.lr.ph47.split.us.preheader.i.i ], [ %27, %..loopexit41_crit_edge.us.i.i ]
  %.03844.us.i.i = phi ptr [ %1, %.lr.ph47.split.us.preheader.i.i ], [ %28, %..loopexit41_crit_edge.us.i.i ]
  %19 = getelementptr inbounds nuw i8, ptr %2, i64 %indvars.iv52.i.i
  %20 = load i8, ptr %19, align 1, !tbaa !3
  %.not40.us.i.i = icmp eq i8 %20, 0
  br i1 %.not40.us.i.i, label %..loopexit41_crit_edge.us.i.i, label %.preheader.us.i.i

.preheader.us.i.i:                                ; preds = %.lr.ph47.split.us.i.i, %.preheader.us.i.i
  %indvars.iv.i.i = phi i64 [ %indvars.iv.next.i.i, %.preheader.us.i.i ], [ 0, %.lr.ph47.split.us.i.i ]
  %21 = getelementptr inbounds nuw i16, ptr %.03745.us.i.i, i64 %indvars.iv.i.i
  %22 = load i16, ptr %21, align 2, !tbaa !12
  %23 = uitofp i16 %22 to double
  %24 = getelementptr inbounds nuw double, ptr %.03844.us.i.i, i64 %indvars.iv.i.i
  %25 = load double, ptr %24, align 8, !tbaa !20
  %26 = tail call double @llvm.fmuladd.f64(double %23, double %23, double %25)
  store double %26, ptr %24, align 8, !tbaa !20
  %indvars.iv.next.i.i = add nuw nsw i64 %indvars.iv.i.i, 1
  %exitcond.not.i.i = icmp eq i64 %indvars.iv.next.i.i, %wide.trip.count.i.i
  br i1 %exitcond.not.i.i, label %..loopexit41_crit_edge.us.i.i, label %.preheader.us.i.i, !llvm.loop !47

..loopexit41_crit_edge.us.i.i:                    ; preds = %.preheader.us.i.i, %.lr.ph47.split.us.i.i
  %indvars.iv.next53.i.i = add nuw nsw i64 %indvars.iv52.i.i, 1
  %27 = getelementptr inbounds nuw i16, ptr %.03745.us.i.i, i64 %18
  %28 = getelementptr inbounds nuw double, ptr %.03844.us.i.i, i64 %18
  %exitcond56.not.i.i = icmp eq i64 %indvars.iv.next53.i.i, %wide.trip.count55.i.i
  br i1 %exitcond56.not.i.i, label %_ZN2cv12cpu_baseline12accSqr_simd_EPKtPdPKhii.exit, label %.lr.ph47.split.us.i.i, !llvm.loop !48

_ZN2cv12cpu_baseline12accSqr_simd_EPKtPdPKhii.exit: ; preds = %..loopexit41_crit_edge.us.i.i, %.lr.ph.i.i, %6, %15, %.lr.ph47.i.i
  ret void
}